target datalayout = "e-m:e-p270:32:32-p271:32:32-p272:64:64-i64:64-i128:128-f80:128-n8:16:32:64-S128"
target triple = "x86_64-pc-linux-gnu"

%struct.reroute_msg_t = type { ptr, ptr }

; Function Attrs: nounwind uwtable
define dso_local i32 @slurm_send_reroute_msg(ptr noundef %0, ptr noundef %1, ptr noundef %2) #0 {
  %4 = alloca i32, align 4
  %5 = alloca ptr, align 8
  %6 = alloca ptr, align 8
  %7 = alloca ptr, align 8
  %8 = alloca i32, align 4
  %9 = alloca %struct.reroute_msg_t, align 8
  %10 = alloca i32, align 4
  store ptr %0, ptr %5, align 8
  store ptr %1, ptr %6, align 8
  store ptr %2, ptr %7, align 8
  call void @llvm.lifetime.start.p0(i64 4, ptr %8) #12
  call void @llvm.lifetime.start.p0(i64 16, ptr %9) #12
  %11 = getelementptr inbounds nuw %struct.reroute_msg_t, ptr %9, i32 0, i32 0
  %12 = load ptr, ptr %7, align 8
  store ptr %12, ptr %11, align 8
  %13 = getelementptr inbounds nuw %struct.reroute_msg_t, ptr %9, i32 0, i32 1
  %14 = load ptr, ptr %6, align 8
  store ptr %14, ptr %13, align 8
  %15 = load ptr, ptr %5, align 8
  %16 = call i32 @send_msg_response(ptr noundef %15, i32 noundef 8003, ptr noundef %9)
  store i32 %16, ptr %8, align 4
  %17 = icmp ne i32 %16, 0
  br i1 %17, label %18, label %21

18:                                               ; preds = %3
  %19 = load i32, ptr %8, align 4
  %20 = call ptr @__errno_location() #14
  store i32 %19, ptr %20, align 4
  store i32 -1, ptr %4, align 4
  store i32 1, ptr %10, align 4
  br label %22

21:                                               ; preds = %3
  store i32 0, ptr %4, align 4
  store i32 1, ptr %10, align 4
  br label %22

22:                                               ; preds = %21, %18
  call void @llvm.lifetime.end.p0(i64 16, ptr %9) #12
  call void @llvm.lifetime.end.p0(i64 4, ptr %8) #12
  %23 = load i32, ptr %4, align 4
  ret i32 %23
}