; Function Attrs: nounwind uwtable
define dso_local range(i32 -1, 1) i32 @slurm_send_reroute_msg(ptr noundef readonly captures(none) %0, ptr noundef %1, ptr noundef %2) local_unnamed_addr #1 {
  %4 = alloca %struct.reroute_msg_t, align 8
  call void @llvm.lifetime.start.p0(i64 16, ptr nonnull %4) #19
  store ptr %2, ptr %4, align 8
  %5 = getelementptr inbounds nuw i8, ptr %4, i64 8
  store ptr %1, ptr %5, align 8
  %6 = call i32 @send_msg_response(ptr noundef %0, i32 noundef 8003, ptr noundef nonnull %4)
  %.not = icmp eq i32 %6, 0
  br i1 %.not, label %9, label %7

7:                                                ; preds = %3
  %8 = tail call ptr @__errno_location() #21
  store i32 %6, ptr %8, align 4
  br label %9

9:                                                ; preds = %3, %7
  %.0 = phi i32 [ -1, %7 ], [ 0, %3 ]
  call void @llvm.lifetime.end.p0(i64 16, ptr nonnull %4) #19
  ret i32 %.0
}